; Function Attrs: mustprogress uwtable
define void @_ZN7rocksdb12ChargedCache6InsertERKNS_5SliceEPvPKNS_5Cache15CacheItemHelperEmPPNS5_6HandleENS5_8PriorityES3_NS_15CompressionTypeE(ptr dead_on_unwind noalias writable sret(%"class.rocksdb::Status") align 8 %0, ptr noundef nonnull readonly align 8 captures(none) dereferenceable(112) %1, ptr noundef nonnull align 8 dereferenceable(16) %2, ptr noundef %3, ptr noundef %4, i64 noundef %5, ptr noundef %6, i32 noundef %7, ptr noundef nonnull align 8 dereferenceable(16) %8, i8 noundef zeroext %9) unnamed_addr #0 align 2 personality ptr @__gxx_personality_v0 {
  %11 = alloca %"class.rocksdb::Status", align 8
  %12 = getelementptr inbounds nuw i8, ptr %1, i64 80
  %13 = load ptr, ptr %12, align 8, !tbaa !4
  %14 = load ptr, ptr %13, align 8, !tbaa !16
  %15 = getelementptr inbounds nuw i8, ptr %14, i64 152
  %16 = load ptr, ptr %15, align 8
  tail call void %16(ptr dead_on_unwind writable sret(%"class.rocksdb::Status") align 8 %0, ptr noundef nonnull align 8 dereferenceable(80) %13, ptr noundef nonnull align 8 dereferenceable(16) %2, ptr noundef %3, ptr noundef %4, i64 noundef %5, ptr noundef %6, i32 noundef %7, ptr noundef nonnull align 8 dereferenceable(16) %8, i8 noundef zeroext %9)
  %17 = load i8, ptr %0, align 8, !tbaa !39
  %18 = icmp eq i8 %17, 0
  br i1 %18, label %19, label %38

19:                                               ; preds = %10
  call void @llvm.lifetime.start.p0(i64 16, ptr nonnull %11) #21
  %20 = getelementptr inbounds nuw i8, ptr %1, i64 96
  %21 = load ptr, ptr %20, align 8, !tbaa !52
  %22 = load ptr, ptr %12, align 8, !tbaa !4
  %23 = load ptr, ptr %22, align 8, !tbaa !16
  %24 = getelementptr inbounds nuw i8, ptr %23, i64 248
  %25 = load ptr, ptr %24, align 8
  %26 = invoke noundef i64 %25(ptr noundef nonnull align 8 dereferenceable(80) %22)
          to label %27 unwind label %34

27:                                               ; preds = %19
  %28 = load ptr, ptr %21, align 8, !tbaa !16
  %29 = getelementptr inbounds nuw i8, ptr %28, i64 16
  %30 = load ptr, ptr %29, align 8
  invoke void %30(ptr dead_on_unwind nonnull writable sret(%"class.rocksdb::Status") align 8 %11, ptr noundef nonnull align 8 dereferenceable(80) %21, i64 noundef %26)
          to label %31 unwind label %34

31:                                               ; preds = %27
  %32 = getelementptr inbounds nuw i8, ptr %11, i64 8
  %33 = load ptr, ptr %32, align 8, !tbaa !54
  %.not.i.i = icmp eq ptr %33, null
  br i1 %.not.i.i, label %_ZN7rocksdb6StatusD2Ev.exit, label %_ZNKSt14default_deleteIA_KcEclIS0_EENSt9enable_ifIXsr14is_convertibleIPA_T_PS1_EE5valueEvE4typeEPS5_.exit.i.i

_ZNKSt14default_deleteIA_KcEclIS0_EENSt9enable_ifIXsr14is_convertibleIPA_T_PS1_EE5valueEvE4typeEPS5_.exit.i.i: ; preds = %31
  call void @_ZdaPv(ptr noundef nonnull %33) #23
  br label %_ZN7rocksdb6StatusD2Ev.exit

_ZN7rocksdb6StatusD2Ev.exit:                      ; preds = %31, %_ZNKSt14default_deleteIA_KcEclIS0_EENSt9enable_ifIXsr14is_convertibleIPA_T_PS1_EE5valueEvE4typeEPS5_.exit.i.i
  call void @llvm.lifetime.end.p0(i64 16, ptr nonnull %11) #21
  br label %38

34:                                               ; preds = %27, %19
  %35 = landingpad { ptr, i32 }
          cleanup
  call void @llvm.lifetime.end.p0(i64 16, ptr nonnull %11) #21
  %36 = getelementptr inbounds nuw i8, ptr %0, i64 8
  %37 = load ptr, ptr %36, align 8, !tbaa !54
  %.not.i.i13 = icmp eq ptr %37, null
  br i1 %.not.i.i13, label %_ZN7rocksdb6StatusD2Ev.exit15, label %_ZNKSt14default_deleteIA_KcEclIS0_EENSt9enable_ifIXsr14is_convertibleIPA_T_PS1_EE5valueEvE4typeEPS5_.exit.i.i14

38:                                               ; preds = %10, %_ZN7rocksdb6StatusD2Ev.exit
  ret void

_ZNKSt14default_deleteIA_KcEclIS0_EENSt9enable_ifIXsr14is_convertibleIPA_T_PS1_EE5valueEvE4typeEPS5_.exit.i.i14: ; preds = %34
  call void @_ZdaPv(ptr noundef nonnull %37) #23
  br label %_ZN7rocksdb6StatusD2Ev.exit15

_ZN7rocksdb6StatusD2Ev.exit15:                    ; preds = %34, %_ZNKSt14default_deleteIA_KcEclIS0_EENSt9enable_ifIXsr14is_convertibleIPA_T_PS1_EE5valueEvE4typeEPS5_.exit.i.i14
  store ptr null, ptr %36, align 8, !tbaa !54
  resume { ptr, i32 } %35
}